; Function Attrs: mustprogress uwtable
define hidden void @_ZN4cvc58internal11NodeBuilderC2Ev(ptr noundef nonnull align 8 dereferenceable(116) %this) unnamed_addr #3 align 2 {
entry:
  %d_nv = getelementptr inbounds i8, ptr %this, i64 96
  store ptr %this, ptr %d_nv, align 8
  %d_nm = getelementptr inbounds i8, ptr %this, i64 104
  %call = tail call noundef ptr @_ZN4cvc58internal11NodeManager9currentNMEv()
  store ptr %call, ptr %d_nm, align 8
  %d_nvMaxChildren = getelementptr inbounds i8, ptr %this, i64 112
  store i32 10, ptr %d_nvMaxChildren, align 8
  %bf.load = load i64, ptr %this, align 8
  %bf.clear6 = and i64 %bf.load, -1152921504606846976
  store i64 %bf.clear6, ptr %this, align 8
  %d_kind = getelementptr inbounds i8, ptr %this, i64 8
  %bf.load10 = load i16, ptr %d_kind, align 8
  %bf.set12 = or i16 %bf.load10, 1023
  store i16 %bf.set12, ptr %d_kind, align 8
  %d_nchildren = getelementptr inbounds i8, ptr %this, i64 12
  %bf.load14 = load i32, ptr %d_nchildren, align 4
  %bf.clear15 = and i32 %bf.load14, -67108864
  store i32 %bf.clear15, ptr %d_nchildren, align 4
  ret void
}